target datalayout = "e-m:e-p270:32:32-p271:32:32-p272:64:64-i64:64-i128:128-f80:128-n8:16:32:64-S128"
target triple = "x86_64-pc-linux-gnu"

@proto_register_gif.ett = internal global [5 x ptr] [ptr @ett_gif, ptr @ett_global_flags, ptr @ett_local_flags, ptr @ett_extension, ptr @ett_image], align 16
@.str.70 = private unnamed_addr constant [15 x i8] c"Compuserve GIF\00", align 1
@.str.71 = private unnamed_addr constant [10 x i8] c"GIF image\00", align 1
@.str.72 = private unnamed_addr constant [10 x i8] c"image-gif\00", align 1
@proto_gif = internal global i32 0, align 4
@gif_handle = internal global ptr null, align 8

; Function Attrs: null_pointer_is_valid sspstrong uwtable
define hidden void @proto_register_gif() #0 {
  %1 = alloca ptr, align 8
  call void @llvm.lifetime.start.p0(i64 8, ptr %1) #3
  %2 = call i32 @proto_register_protocol(ptr noundef @.str.70, ptr noundef @.str.71, ptr noundef @.str.72)
  store i32 %2, ptr @proto_gif, align 4
  %3 = load i32, ptr @proto_gif, align 4
  call void @proto_register_field_array(i32 noundef %3, ptr noundef @proto_register_gif.hf, i32 noundef 25)
  call void @proto_register_subtree_array(ptr noundef @proto_register_gif.ett, i32 noundef 5)
  %4 = load i32, ptr @proto_gif, align 4
  %5 = call ptr @expert_register_protocol(i32 noundef %4)
  store ptr %5, ptr %1, align 8
  %6 = load ptr, ptr %1, align 8
  call void @expert_register_field_array(ptr noundef %6, ptr noundef @proto_register_gif.ei, i32 noundef 1)
  %7 = load i32, ptr @proto_gif, align 4
  %8 = call ptr @register_dissector(ptr noundef @.str.72, ptr noundef @dissect_gif, i32 noundef %7)
  store ptr %8, ptr @gif_handle, align 8
  call void @llvm.lifetime.end.p0(i64 8, ptr %1) #3
  ret void
}